target datalayout = "e-m:e-p270:32:32-p271:32:32-p272:64:64-i64:64-i128:128-f80:128-n8:16:32:64-S128"
target triple = "x86_64-pc-linux-gnu"

%struct.ident_t = type { i32, i32, i32, i32, ptr }
%"class.std::function" = type { %"class.std::_Function_base", ptr }
%"class.std::_Function_base" = type { %"union.std::_Any_data", ptr }
%"union.std::_Any_data" = type { %"union.std::_Nocopy_types" }
%"union.std::_Nocopy_types" = type { { i64, i64 } }
%"class.LightGBM::ObjectiveFunction" = type { ptr }
%"class.LightGBM::BinaryLogloss" = type <{ %"class.LightGBM::ObjectiveFunction", i32, i32, ptr, i8, [7 x i8], double, [2 x i32], [2 x double], ptr, double, %"class.std::function", i8, i8, [6 x i8] }>

@1 = private unnamed_addr constant %struct.ident_t { i32 0, i32 514, i32 0, i32 22, ptr @0 }, align 8
@.gomp_critical_user_.reduction.var = common global [8 x i32] zeroinitializer, align 8
@3 = private unnamed_addr constant %struct.ident_t { i32 0, i32 18, i32 0, i32 22, ptr @0 }, align 8

; Function Attrs: mustprogress nounwind uwtable
define linkonce_odr noundef zeroext i1 @_ZNKSt14_Function_base8_M_emptyEv(ptr noundef nonnull align 8 dereferenceable(24) %0) #7 comdat align 2 {
  %2 = alloca ptr, align 8
  store ptr %0, ptr %2, align 8, !tbaa !109
  %3 = load ptr, ptr %2, align 8
  %4 = getelementptr inbounds nuw %"class.std::_Function_base", ptr %3, i32 0, i32 1
  %5 = load ptr, ptr %4, align 8, !tbaa !111
  %6 = icmp ne ptr %5, null
  %7 = xor i1 %6, true
  ret i1 %7
}

; Function Attrs: mustprogress uwtable
define linkonce_odr noundef zeroext i1 @_ZNKSt8functionIFbfEEclEf(ptr noundef nonnull align 8 dereferenceable(32) %0, float noundef %1) #4 comdat align 2 {
  %3 = alloca ptr, align 8
  %4 = alloca float, align 4
  store ptr %0, ptr %3, align 8, !tbaa !92
  store float %1, ptr %4, align 4, !tbaa !210
  %5 = load ptr, ptr %3, align 8
  %6 = call noundef zeroext i1 @_ZNKSt14_Function_base8_M_emptyEv(ptr noundef nonnull align 8 dereferenceable(24) %5)
  br i1 %6, label %7, label %8

7:                                                ; preds = %2
  call void @_ZSt25__throw_bad_function_callv() #30
  unreachable

8:                                                ; preds = %2
  %9 = getelementptr inbounds nuw %"class.std::function", ptr %5, i32 0, i32 1
  %10 = load ptr, ptr %9, align 8, !tbaa !96
  %11 = getelementptr inbounds nuw %"class.std::_Function_base", ptr %5, i32 0, i32 0
  %12 = call noundef zeroext i1 %10(ptr noundef nonnull align 8 dereferenceable(16) %11, ptr noundef nonnull align 4 dereferenceable(4) %4)
  ret i1 %12
}

; Function Attrs: noinline norecurse nounwind uwtable
define internal void @_ZNK8LightGBM13BinaryLogloss14BoostFromScoreEi.omp_outlined.47(ptr noalias noundef %0, ptr noalias noundef %1, ptr noundef %2, ptr noundef nonnull align 8 dereferenceable(8) %3) #19 personality ptr @__gxx_personality_v0 {
  %5 = alloca ptr, align 8
  %6 = alloca ptr, align 8
  %7 = alloca ptr, align 8
  %8 = alloca ptr, align 8
  %9 = alloca i32, align 4
  %10 = alloca i32, align 4
  %11 = alloca i32, align 4
  %12 = alloca i32, align 4
  %13 = alloca i32, align 4
  %14 = alloca i32, align 4
  %15 = alloca i32, align 4
  %16 = alloca i32, align 4
  %17 = alloca double, align 8
  %18 = alloca i32, align 4
  %19 = alloca [1 x ptr], align 8
  store ptr %0, ptr %5, align 8, !tbaa !193
  store ptr %1, ptr %6, align 8, !tbaa !193
  store ptr %2, ptr %7, align 8, !tbaa !99
  store ptr %3, ptr %8, align 8, !tbaa !191
  %20 = load ptr, ptr %7, align 8, !tbaa !99
  %21 = load ptr, ptr %8, align 8, !tbaa !191
  call void @llvm.lifetime.start.p0(i64 4, ptr %9) #3
  call void @llvm.lifetime.start.p0(i64 4, ptr %10) #3
  %22 = getelementptr inbounds nuw %"class.LightGBM::BinaryLogloss", ptr %20, i32 0, i32 1
  %23 = load i32, ptr %22, align 8, !tbaa !590
  store i32 %23, ptr %10, align 4, !tbaa !141
  call void @llvm.lifetime.start.p0(i64 4, ptr %11) #3
  %24 = load i32, ptr %10, align 4, !tbaa !141
  %25 = sub nsw i32 %24, 0
  %26 = sdiv i32 %25, 1
  %27 = sub nsw i32 %26, 1
  store i32 %27, ptr %11, align 4, !tbaa !141
  call void @llvm.lifetime.start.p0(i64 4, ptr %12) #3
  store i32 0, ptr %12, align 4, !tbaa !141
  call void @llvm.lifetime.end.p0(i64 4, ptr %12) #3
  %28 = load i32, ptr %10, align 4, !tbaa !141
  %29 = icmp slt i32 0, %28
  br i1 %29, label %30, label %86

30:                                               ; preds = %4
  call void @llvm.lifetime.start.p0(i64 4, ptr %13) #3
  store i32 0, ptr %13, align 4, !tbaa !141
  call void @llvm.lifetime.start.p0(i64 4, ptr %14) #3
  %31 = load i32, ptr %11, align 4, !tbaa !141
  store i32 %31, ptr %14, align 4, !tbaa !141
  call void @llvm.lifetime.start.p0(i64 4, ptr %15) #3
  store i32 1, ptr %15, align 4, !tbaa !141
  call void @llvm.lifetime.start.p0(i64 4, ptr %16) #3
  store i32 0, ptr %16, align 4, !tbaa !141
  call void @llvm.lifetime.start.p0(i64 8, ptr %17) #3
  store double 0.000000e+00, ptr %17, align 8, !tbaa !194
  call void @llvm.lifetime.start.p0(i64 4, ptr %18) #3
  %32 = load ptr, ptr %5, align 8
  %33 = load i32, ptr %32, align 4, !tbaa !141
  call void @__kmpc_for_static_init_4(ptr @1, i32 %33, i32 34, ptr %16, ptr %13, ptr %14, ptr %15, i32 1, i32 1)
  %34 = load i32, ptr %14, align 4, !tbaa !141
  %35 = load i32, ptr %11, align 4, !tbaa !141
  %36 = icmp sgt i32 %34, %35
  br i1 %36, label %37, label %39

37:                                               ; preds = %30
  %38 = load i32, ptr %11, align 4, !tbaa !141
  br label %41

39:                                               ; preds = %30
  %40 = load i32, ptr %14, align 4, !tbaa !141
  br label %41

41:                                               ; preds = %39, %37
  %42 = phi i32 [ %38, %37 ], [ %40, %39 ]
  store i32 %42, ptr %14, align 4, !tbaa !141
  %43 = load i32, ptr %13, align 4, !tbaa !141
  store i32 %43, ptr %9, align 4, !tbaa !141
  br label %44

44:                                               ; preds = %67, %41
  %45 = load i32, ptr %9, align 4, !tbaa !141
  %46 = load i32, ptr %14, align 4, !tbaa !141
  %47 = icmp sle i32 %45, %46
  br i1 %47, label %49, label %48

48:                                               ; preds = %44
  br label %70

49:                                               ; preds = %44
  %50 = load i32, ptr %9, align 4, !tbaa !141
  %51 = mul nsw i32 %50, 1
  %52 = add nsw i32 0, %51
  store i32 %52, ptr %18, align 4, !tbaa !141
  %53 = getelementptr inbounds nuw %"class.LightGBM::BinaryLogloss", ptr %20, i32 0, i32 11
  %54 = getelementptr inbounds nuw %"class.LightGBM::BinaryLogloss", ptr %20, i32 0, i32 3
  %55 = load ptr, ptr %54, align 8, !tbaa !591
  %56 = load i32, ptr %18, align 4, !tbaa !141
  %57 = sext i32 %56 to i64
  %58 = getelementptr inbounds float, ptr %55, i64 %57
  %59 = load float, ptr %58, align 4, !tbaa !210
  %60 = invoke noundef zeroext i1 @_ZNKSt8functionIFbfEEclEf(ptr noundef nonnull align 8 dereferenceable(32) %53, float noundef %59)
          to label %61 unwind label %87

61:                                               ; preds = %49
  %62 = zext i1 %60 to i32
  %63 = sitofp i32 %62 to double
  %64 = load double, ptr %17, align 8, !tbaa !194
  %65 = fadd double %64, %63
  store double %65, ptr %17, align 8, !tbaa !194
  br label %66

66:                                               ; preds = %61
  br label %67

67:                                               ; preds = %66
  %68 = load i32, ptr %9, align 4, !tbaa !141
  %69 = add nsw i32 %68, 1
  store i32 %69, ptr %9, align 4, !tbaa !141
  br label %44

70:                                               ; preds = %48
  br label %71

71:                                               ; preds = %70
  %72 = load ptr, ptr %5, align 8
  %73 = load i32, ptr %72, align 4, !tbaa !141
  call void @__kmpc_for_static_fini(ptr @1, i32 %73)
  %74 = getelementptr inbounds [1 x ptr], ptr %19, i64 0, i64 0
  store ptr %17, ptr %74, align 8
  %75 = load ptr, ptr %5, align 8
  %76 = load i32, ptr %75, align 4, !tbaa !141
  %77 = call i32 @__kmpc_reduce_nowait(ptr @3, i32 %76, i32 1, i64 8, ptr %19, ptr @_ZNK8LightGBM13BinaryLogloss14BoostFromScoreEi.omp_outlined.47.omp.reduction.reduction_func, ptr @.gomp_critical_user_.reduction.var)
  switch i32 %77, label %85 [
    i32 1, label %78
    i32 2, label %82
  ]

78:                                               ; preds = %71
  %79 = load double, ptr %21, align 8, !tbaa !194
  %80 = load double, ptr %17, align 8, !tbaa !194
  %81 = fadd double %79, %80
  store double %81, ptr %21, align 8, !tbaa !194
  call void @__kmpc_end_reduce_nowait(ptr @3, i32 %76, ptr @.gomp_critical_user_.reduction.var)
  br label %85

82:                                               ; preds = %71
  %83 = load double, ptr %17, align 8, !tbaa !194
  %84 = atomicrmw fadd ptr %21, double %83 monotonic, align 8
  br label %85

85:                                               ; preds = %82, %78, %71
  call void @llvm.lifetime.end.p0(i64 4, ptr %18) #3
  call void @llvm.lifetime.end.p0(i64 8, ptr %17) #3
  call void @llvm.lifetime.end.p0(i64 4, ptr %16) #3
  call void @llvm.lifetime.end.p0(i64 4, ptr %15) #3
  call void @llvm.lifetime.end.p0(i64 4, ptr %14) #3
  call void @llvm.lifetime.end.p0(i64 4, ptr %13) #3
  br label %86

86:                                               ; preds = %85, %4
  call void @llvm.lifetime.end.p0(i64 4, ptr %11) #3
  call void @llvm.lifetime.end.p0(i64 4, ptr %10) #3
  call void @llvm.lifetime.end.p0(i64 4, ptr %9) #3
  ret void

87:                                               ; preds = %49
  %88 = landingpad { ptr, i32 }
          catch ptr null
  %89 = extractvalue { ptr, i32 } %88, 0
  call void @__clang_call_terminate(ptr %89) #29
  unreachable
}