; Function Attrs: noinline norecurse nounwind uwtable
define internal void @_ZNK8LightGBM13BinaryLogloss14BoostFromScoreEi.omp_outlined.47(ptr noalias noundef readonly captures(none) %0, ptr noalias readnone captures(none) %1, ptr noundef %2, ptr noundef nonnull align 8 captures(none) dereferenceable(8) %3) #17 personality ptr @__gxx_personality_v0 {
  %5 = alloca float, align 4
  %6 = alloca i32, align 4
  %7 = alloca i32, align 4
  %8 = alloca i32, align 4
  %9 = alloca i32, align 4
  %10 = alloca double, align 8
  %11 = alloca [1 x ptr], align 8
  %12 = getelementptr inbounds nuw i8, ptr %2, i64 8
  %13 = load i32, ptr %12, align 8, !tbaa !358
  %14 = icmp sgt i32 %13, 0
  br i1 %14, label %15, label %50

15:                                               ; preds = %4
  %16 = add nsw i32 %13, -1
  call void @llvm.lifetime.start.p0(i64 4, ptr nonnull %6) #15
  store i32 0, ptr %6, align 4, !tbaa !127
  call void @llvm.lifetime.start.p0(i64 4, ptr nonnull %7) #15
  store i32 %16, ptr %7, align 4, !tbaa !127
  call void @llvm.lifetime.start.p0(i64 4, ptr nonnull %8) #15
  store i32 1, ptr %8, align 4, !tbaa !127
  call void @llvm.lifetime.start.p0(i64 4, ptr nonnull %9) #15
  store i32 0, ptr %9, align 4, !tbaa !127
  call void @llvm.lifetime.start.p0(i64 8, ptr nonnull %10) #15
  store double 0.000000e+00, ptr %10, align 8, !tbaa !153
  %17 = load i32, ptr %0, align 4, !tbaa !127
  call void @__kmpc_for_static_init_4(ptr nonnull @1, i32 %17, i32 34, ptr nonnull %9, ptr nonnull %6, ptr nonnull %7, ptr nonnull %8, i32 1, i32 1)
  %18 = load i32, ptr %7, align 4, !tbaa !127
  %19 = call i32 @llvm.smin.i32(i32 %18, i32 %16)
  store i32 %19, ptr %7, align 4, !tbaa !127
  %20 = load i32, ptr %6, align 4, !tbaa !127
  %.not14 = icmp sgt i32 %20, %19
  br i1 %.not14, label %._crit_edge, label %.lr.ph

.lr.ph:                                           ; preds = %15
  %21 = getelementptr inbounds nuw i8, ptr %2, i64 16
  %22 = getelementptr inbounds nuw i8, ptr %2, i64 96
  %23 = getelementptr inbounds nuw i8, ptr %2, i64 80
  %24 = getelementptr inbounds nuw i8, ptr %2, i64 104
  %25 = sext i32 %20 to i64
  br label %26

26:                                               ; preds = %.lr.ph, %36
  %27 = phi double [ 0.000000e+00, %.lr.ph ], [ %38, %36 ]
  %indvars.iv = phi i64 [ %25, %.lr.ph ], [ %indvars.iv.next, %36 ]
  %28 = load ptr, ptr %21, align 8, !tbaa !359
  %29 = getelementptr inbounds float, ptr %28, i64 %indvars.iv
  %30 = load float, ptr %29, align 4, !tbaa !175
  call void @llvm.lifetime.start.p0(i64 4, ptr nonnull %5)
  store float %30, ptr %5, align 4, !tbaa !175
  %31 = load ptr, ptr %22, align 8, !tbaa !73
  %.not.i.i = icmp eq ptr %31, null
  br i1 %.not.i.i, label %32, label %33

32:                                               ; preds = %26
  invoke void @_ZSt25__throw_bad_function_callv() #38
          to label %.noexc unwind label %.loopexit.split-lp

.noexc:                                           ; preds = %32
  unreachable

33:                                               ; preds = %26
  %34 = load ptr, ptr %24, align 8, !tbaa !105
  %35 = invoke noundef zeroext i1 %34(ptr noundef nonnull align 8 dereferenceable(32) %23, ptr noundef nonnull align 4 dereferenceable(4) %5)
          to label %36 unwind label %.loopexit

36:                                               ; preds = %33
  call void @llvm.lifetime.end.p0(i64 4, ptr nonnull %5)
  %37 = uitofp i1 %35 to double
  %38 = fadd double %27, %37
  store double %38, ptr %10, align 8, !tbaa !153
  %indvars.iv.next = add nsw i64 %indvars.iv, 1
  %39 = load i32, ptr %7, align 4, !tbaa !127
  %40 = sext i32 %39 to i64
  %.not.not = icmp slt i64 %indvars.iv, %40
  br i1 %.not.not, label %26, label %._crit_edge

._crit_edge:                                      ; preds = %36, %15
  call void @__kmpc_for_static_fini(ptr nonnull @1, i32 %17)
  store ptr %10, ptr %11, align 8
  %41 = call i32 @__kmpc_reduce_nowait(ptr nonnull @3, i32 %17, i32 1, i64 8, ptr nonnull %11, ptr nonnull @_ZNK8LightGBM13BinaryLogloss14BoostFromScoreEi.omp_outlined.47.omp.reduction.reduction_func, ptr nonnull @.gomp_critical_user_.reduction.var)
  switch i32 %41, label %49 [
    i32 1, label %42
    i32 2, label %46
  ]

42:                                               ; preds = %._crit_edge
  %43 = load double, ptr %3, align 8, !tbaa !153
  %44 = load double, ptr %10, align 8, !tbaa !153
  %45 = fadd double %43, %44
  store double %45, ptr %3, align 8, !tbaa !153
  call void @__kmpc_end_reduce_nowait(ptr nonnull @3, i32 %17, ptr nonnull @.gomp_critical_user_.reduction.var)
  br label %49

46:                                               ; preds = %._crit_edge
  %47 = load double, ptr %10, align 8, !tbaa !153
  %48 = atomicrmw fadd ptr %3, double %47 monotonic, align 8
  br label %49

49:                                               ; preds = %46, %42, %._crit_edge
  call void @llvm.lifetime.end.p0(i64 8, ptr nonnull %10) #15
  call void @llvm.lifetime.end.p0(i64 4, ptr nonnull %9) #15
  call void @llvm.lifetime.end.p0(i64 4, ptr nonnull %8) #15
  call void @llvm.lifetime.end.p0(i64 4, ptr nonnull %7) #15
  call void @llvm.lifetime.end.p0(i64 4, ptr nonnull %6) #15
  br label %50

50:                                               ; preds = %49, %4
  ret void

.loopexit:                                        ; preds = %33
  %lpad.loopexit = landingpad { ptr, i32 }
          catch ptr null
  br label %51

.loopexit.split-lp:                               ; preds = %32
  %lpad.loopexit.split-lp = landingpad { ptr, i32 }
          catch ptr null
  br label %51

51:                                               ; preds = %.loopexit.split-lp, %.loopexit
  %lpad.phi = phi { ptr, i32 } [ %lpad.loopexit, %.loopexit ], [ %lpad.loopexit.split-lp, %.loopexit.split-lp ]
  %52 = extractvalue { ptr, i32 } %lpad.phi, 0
  call void @__clang_call_terminate(ptr %52) #37
  unreachable
}